; ModuleID = 'bench/openssl/original/time.ll'
source_filename = "bench/openssl/original/time.ll"
target datalayout = "e-m:e-p270:32:32-p271:32:32-p272:64:64-i64:64-i128:128-f80:128-n8:16:32:64-S128"
target triple = "x86_64-pc-linux-gnu"

%struct.timeval = type { i64, i64 }

@.str = private unnamed_addr constant [25 x i8] c"../openssl/crypto/time.c\00", align 1
@__func__.ossl_time_now = private unnamed_addr constant [14 x i8] c"ossl_time_now\00", align 1
@.str.1 = private unnamed_addr constant [23 x i8] c"calling gettimeofday()\00", align 1

; Function Attrs: nounwind uwtable
define i64 @ossl_time_now() local_unnamed_addr #0 {
  %1 = alloca %struct.timeval, align 8
  call void @llvm.lifetime.start.p0(i64 16, ptr nonnull %1) #6
  %2 = call i32 @gettimeofday(ptr noundef nonnull %1, ptr noundef null) #6
  %3 = icmp slt i32 %2, 0
  br i1 %3, label %4, label %7

4:                                                ; preds = %0
  tail call void @ERR_new() #6
  tail call void @ERR_set_debug(ptr noundef nonnull @.str, i32 noundef 39, ptr noundef nonnull @__func__.ossl_time_now) #6
  %5 = tail call ptr @__errno_location() #7
  %6 = load i32, ptr %5, align 4, !tbaa !3
  tail call void (i32, i32, ptr, ...) @ERR_set_error(i32 noundef 2, i32 noundef %6, ptr noundef nonnull @.str.1) #6
  br label %20

7:                                                ; preds = %0
  %8 = load i64, ptr %1, align 8, !tbaa !7
  %9 = icmp slt i64 %8, 1
  br i1 %9, label %10, label %14

10:                                               ; preds = %7
  %11 = getelementptr inbounds nuw i8, ptr %1, i64 8
  %12 = load i64, ptr %11, align 8, !tbaa !10
  %13 = tail call i64 @llvm.smax.i64(i64 %12, i64 0)
  br label %19

14:                                               ; preds = %7
  %15 = mul i64 %8, 1000000
  %16 = getelementptr inbounds nuw i8, ptr %1, i64 8
  %17 = load i64, ptr %16, align 8, !tbaa !10
  %18 = add i64 %17, %15
  br label %19

19:                                               ; preds = %14, %10
  %.sroa.0.0.in = phi i64 [ %13, %10 ], [ %18, %14 ]
  %.sroa.0.0 = mul i64 %.sroa.0.0.in, 1000
  br label %20

20:                                               ; preds = %19, %4
  %.sroa.01.0 = phi i64 [ 0, %4 ], [ %.sroa.0.0, %19 ]
  call void @llvm.lifetime.end.p0(i64 16, ptr nonnull %1) #6
  ret i64 %.sroa.01.0
}

; Function Attrs: mustprogress nocallback nofree nosync nounwind willreturn memory(argmem: readwrite)
declare void @llvm.lifetime.start.p0(i64 immarg, ptr captures(none)) #1

; Function Attrs: nofree nounwind
declare noundef i32 @gettimeofday(ptr noundef captures(none), ptr noundef captures(none)) local_unnamed_addr #2

declare void @ERR_new() local_unnamed_addr #3

declare void @ERR_set_debug(ptr noundef, i32 noundef, ptr noundef) local_unnamed_addr #3

declare void @ERR_set_error(i32 noundef, i32 noundef, ptr noundef, ...) local_unnamed_addr #3

; Function Attrs: mustprogress nofree nosync nounwind willreturn memory(none)
declare ptr @__errno_location() local_unnamed_addr #4

; Function Attrs: mustprogress nocallback nofree nosync nounwind willreturn memory(argmem: readwrite)
declare void @llvm.lifetime.end.p0(i64 immarg, ptr captures(none)) #1

; Function Attrs: nocallback nofree nosync nounwind speculatable willreturn memory(none)
declare i64 @llvm.smax.i64(i64, i64) #5


!llvm.module.flags = !{!0, !1, !2}

!0 = !{i32 1, !"wchar_size", i32 4}
!1 = !{i32 8, !"PIC Level", i32 2}
!2 = !{i32 7, !"uwtable", i32 2}
!3 = !{!4, !4, i64 0}
!4 = !{!"int", !5, i64 0}
!5 = !{!"omnipotent char", !6, i64 0}
!6 = !{!"Simple C/C++ TBAA"}
!7 = !{!8, !9, i64 0}
!8 = !{!"timeval", !9, i64 0, !9, i64 8}
!9 = !{!"long", !5, i64 0}
!10 = !{!8, !9, i64 8}
